Certificate:
    Data:
        Version: 3 (0x2)
        Serial Number: 1 (0x1)
        Signature Algorithm: sha1WithRSAEncryption
        Issuer: C=de, ST=Some-State, O=root, OU=root, CN=root
        Validity
            Not Before: Apr  3 20:45:12 2012 GMT
            Not After : Apr  3 20:45:12 2013 GMT
        Subject: C=de, ST=client, L=client, O=client, OU=client, CN=client
        Subject Public Key Info:
            Public Key Algorithm: rsaEncryption
            RSA Public Key: (1024 bit)
                Modulus (1024 bit):
                    00:bb:20:60:be:ee:9b:0d:cb:e6:c1:9b:43:96:eb:
                    42:d3:08:5f:36:e5:aa:25:eb:05:9f:ce:24:de:ff:
                    36:38:66:93:89:c4:77:04:26:72:62:e2:28:d8:39:
                    81:31:05:67:f0:f8:1e:23:de:8b:4d:83:9e:75:71:
                    e4:b1:9f:4a:b8:1d:bf:2b:e1:c8:0b:d9:89:bb:27:
                    d1:44:51:30:8c:d4:89:18:be:2c:cd:2f:a9:69:f3:
                    3a:a0:90:93:ba:e3:05:12:d1:30:d9:d2:22:9e:c2:
                    7d:12:9c:1b:f6:9c:97:74:02:47:81:2f:6f:b2:8c:
                    ef:d1:7e:37:e0:51:95:ce:41
                Exponent: 65537 (0x10001)
        X509v3 extensions:
            X509v3 Basic Constraints: 
                CA:FALSE
            Netscape Comment: 
                OpenSSL Generated Certificate
            X509v3 Subject Key Identifier: 
                19:E6:69:BE:CE:8E:42:DB:4D:29:F1:5B:B1:39:5F:6F:92:54:FD:CD
            X509v3 Authority Key Identifier: 
                keyid:D9:CF:AA:58:4C:D9:8D:41:C2:4A:5C:89:FA:BB:92:F2:46:B1:B4:5F

    Signature Algorithm: sha1WithRSAEncryption
        7b:ab:4a:a6:b4:0a:f8:66:7b:18:a8:83:95:fa:c7:da:e1:4b:
        8d:e5:49:a7:d2:3a:48:72:54:a6:88:13:17:97:5e:d0:b7:5a:
        10:fc:75:9e:26:49:6d:bd:3a:58:ae:64:1b:b1:e6:99:b4:61:
        20:90:83:e7:38:86:ec:8c:da:54:bc:4f:25:08:3c:c7:9e:38:
        0d:97:f9:ac:a7:50:97:3b:9e:ff:2e:43:0e:8d:ad:54:58:c8:
        11:6c:11:ad:08:c4:f1:53:e9:b5:e8:e8:f5:c2:bb:d7:ba:64:
        ee:fa:8f:a1:98:c7:82:7c:1e:d9:3c:a0:1b:39:d2:71:e7:c2:
        d7:61
-----BEGIN CERTIFICATE-----
MIICojCCAgugAwIBAgIBATANBgkqhkiG9w0BAQUFADBPMQswCQYDVQQGEwJkZTET
MBEGA1UECBMKU29tZS1TdGF0ZTENMAsGA1UEChMEcm9vdDENMAsGA1UECxMEcm9v
dDENMAsGA1UEAxMEcm9vdDAeFw0xMjA0MDMyMDQ1MTJaFw0xMzA0MDMyMDQ1MTJa
MGIxCzAJBgNVBAYTAmRlMQ8wDQYDVQQIEwZjbGllbnQxDzANBgNVBAcTBmNsaWVu
dDEPMA0GA1UEChMGY2xpZW50MQ8wDQYDVQQLEwZjbGllbnQxDzANBgNVBAMTBmNs
aWVudDCBnzANBgkqhkiG9w0BAQEFAAOBjQAwgYkCgYEAuyBgvu6bDcvmwZtDlutC
0whfNuWqJesFn84k3v82OGaTicR3BCZyYuIo2DmBMQVn8PgeI96LTYOedXHksZ9K
uB2/K+HIC9mJuyfRRFEwjNSJGL4szS+pafM6oJCTuuMFEtEw2dIinsJ9Epwb9pyX
dAJHgS9vsozv0X434FGVzkECAwEAAaN7MHkwCQYDVR0TBAIwADAsBglghkgBhvhC
AQ0EHxYdT3BlblNTTCBHZW5lcmF0ZWQgQ2VydGlmaWNhdGUwHQYDVR0OBBYEFBnm
ab7OjkLbTSnxW7E5X2+SVP3NMB8GA1UdIwQYMBaAFNnPqlhM2Y1Bwkpcifq7kvJG
sbRfMA0GCSqGSIb3DQEBBQUAA4GBAHurSqa0Cvhmexiog5X6x9rhS43lSafSOkhy
VKaIExeXXtC3WhD8dZ4mSW29OliuZBux5pm0YSCQg+c4huyM2lS8TyUIPMeeOA2X
+aynUJc7nv8uQw6NrVRYyBFsEa0IxPFT6bXo6PXCu9e6ZO76j6GYx4J8Htk8oBs5
0nHnwtdh
-----END CERTIFICATE-----
